; Function Attrs: mustprogress nounwind uwtable
define internal fastcc noundef zeroext i1 @_ZL18setRetDoesNotAliasRN4llvm8FunctionE(ptr noundef nonnull align 8 dereferenceable(136) %0) unnamed_addr #0 {
  %2 = tail call noundef zeroext i1 @_ZNK4llvm8Function15hasRetAttributeENS_9Attribute8AttrKindE(ptr noundef nonnull align 8 dereferenceable(136) %0, i32 noundef 21) #7
  br i1 %2, label %4, label %3

3:                                                ; preds = %1
  tail call void @_ZN4llvm8Function10addRetAttrENS_9Attribute8AttrKindE(ptr noundef nonnull align 8 dereferenceable(136) %0, i32 noundef 21) #7
  br label %4

4:                                                ; preds = %1, %3
  %.0 = xor i1 %2, true
  ret i1 %.0
}